target datalayout = "e-m:e-p270:32:32-p271:32:32-p272:64:64-i64:64-i128:128-f80:128-n8:16:32:64-S128"
target triple = "x86_64-pc-linux-gnu"

%"class.llvm::vfs::Status" = type <{ %"class.std::__cxx11::basic_string", %"class.llvm::sys::fs::UniqueID", %"class.std::chrono::time_point", i32, i32, i64, i32, i32, i8, [7 x i8] }>
%"class.std::__cxx11::basic_string" = type { %"struct.std::__cxx11::basic_string<char>::_Alloc_hider", i64, %union.anon }
%"struct.std::__cxx11::basic_string<char>::_Alloc_hider" = type { ptr }
%union.anon = type { i64, [8 x i8] }
%"class.llvm::sys::fs::UniqueID" = type { i64, i64 }
%"class.std::chrono::time_point" = type { %"class.std::chrono::duration" }
%"class.std::chrono::duration" = type { i64 }
%"class.std::error_code" = type { i32, ptr }
%"class.llvm::vfs::File" = type { ptr }
%"class.(anonymous namespace)::RealFile" = type { %"class.llvm::vfs::File", i32, [4 x i8], %"class.llvm::vfs::Status", %"class.std::__cxx11::basic_string" }

; Function Attrs: mustprogress nounwind uwtable
define dso_local void @_ZN4llvm3vfs4FileD2Ev(ptr noundef nonnull align 8 dereferenceable(8) %0) unnamed_addr #0 align 2 {
  %2 = alloca ptr, align 8
  store ptr %0, ptr %2, align 8
  ret void
}

; Function Attrs: mustprogress nounwind uwtable
define linkonce_odr hidden void @_ZN4llvm3vfs6StatusD2Ev(ptr noundef nonnull align 8 dereferenceable(81) %0) unnamed_addr #0 comdat align 2 {
  %2 = alloca ptr, align 8
  store ptr %0, ptr %2, align 8
  %3 = load ptr, ptr %2, align 8
  %4 = getelementptr inbounds nuw %"class.llvm::vfs::Status", ptr %3, i32 0, i32 0
  call void @_ZNSt7__cxx1112basic_stringIcSt11char_traitsIcESaIcEED1Ev(ptr noundef nonnull align 8 dereferenceable(32) %4) #5
  ret void
}

; Function Attrs: mustprogress nounwind uwtable
define internal void @_ZN12_GLOBAL__N_18RealFileD2Ev(ptr noundef nonnull align 8 dereferenceable(136) %0) unnamed_addr #0 align 2 {
  %2 = alloca ptr, align 8
  %3 = alloca %"class.std::error_code", align 8
  store ptr %0, ptr %2, align 8
  %4 = load ptr, ptr %2, align 8
  store ptr getelementptr inbounds inrange(-16, 56) ({ [9 x ptr] }, ptr @_ZTVN12_GLOBAL__N_18RealFileE, i32 0, i32 0, i32 2), ptr %4, align 8
  %5 = load ptr, ptr %4, align 8
  %6 = getelementptr inbounds ptr, ptr %5, i64 5
  %7 = load ptr, ptr %6, align 8
  %8 = call { i32, ptr } %7(ptr noundef nonnull align 8 dereferenceable(136) %4)
  %9 = getelementptr inbounds nuw { i32, ptr }, ptr %3, i32 0, i32 0
  %10 = extractvalue { i32, ptr } %8, 0
  store i32 %10, ptr %9, align 8
  %11 = getelementptr inbounds nuw { i32, ptr }, ptr %3, i32 0, i32 1
  %12 = extractvalue { i32, ptr } %8, 1
  store ptr %12, ptr %11, align 8
  %13 = getelementptr inbounds nuw %"class.(anonymous namespace)::RealFile", ptr %4, i32 0, i32 4
  call void @_ZNSt7__cxx1112basic_stringIcSt11char_traitsIcESaIcEED1Ev(ptr noundef nonnull align 8 dereferenceable(32) %13) #5
  %14 = getelementptr inbounds nuw %"class.(anonymous namespace)::RealFile", ptr %4, i32 0, i32 3
  call void @_ZN4llvm3vfs6StatusD2Ev(ptr noundef nonnull align 8 dereferenceable(81) %14) #5
  call void @_ZN4llvm3vfs4FileD2Ev(ptr noundef nonnull align 8 dereferenceable(8) %4) #5
  ret void
}